target datalayout = "e-m:e-p270:32:32-p271:32:32-p272:64:64-i64:64-i128:128-f80:128-n8:16:32:64-S128"
target triple = "x86_64-unknown-linux-gnu"

%class.aiColor4t = type { float, float, float, float }
%"struct.glTF2::TextureInfo" = type { %"class.glTFCommon::Ref.163", i32, i32, i8, %"struct.glTF2::TextureInfo::TextureTransformExt" }
%"class.glTFCommon::Ref.163" = type <{ ptr, i32, [4 x i8] }>
%"struct.glTF2::TextureInfo::TextureTransformExt" = type { [2 x float], float, [2 x float] }
%"struct.glTF2::MaterialSpecular" = type { float, [3 x float], %"struct.glTF2::TextureInfo", %"struct.glTF2::TextureInfo" }
%struct.aiColor3D = type { float, float, float }

@.str.29 = private unnamed_addr constant [14 x i8] c"$clr.specular\00", align 1
@.str.31 = private unnamed_addr constant [20 x i8] c"$mat.specularFactor\00", align 1
@_ZN5glTF2L26defaultSpecularColorFactorE = internal constant [3 x float] [float 1.000000e+00, float 1.000000e+00, float 1.000000e+00], align 4

; Function Attrs: mustprogress nounwind uwtable
define linkonce_odr hidden noundef nonnull align 4 dereferenceable(12) ptr @_ZN9aiColor3DaSERKS_(ptr noundef nonnull align 4 dereferenceable(12) %this, ptr noundef nonnull align 4 dereferenceable(12) %o) #0 comdat align 2 {
entry:
  %this.addr = alloca ptr, align 8
  %o.addr = alloca ptr, align 8
  store ptr %this, ptr %this.addr, align 8
  store ptr %o, ptr %o.addr, align 8
  %this1 = load ptr, ptr %this.addr, align 8
  %0 = load ptr, ptr %o.addr, align 8
  %r = getelementptr inbounds %struct.aiColor3D, ptr %0, i32 0, i32 0
  %1 = load float, ptr %r, align 4
  %r2 = getelementptr inbounds %struct.aiColor3D, ptr %this1, i32 0, i32 0
  store float %1, ptr %r2, align 4
  %2 = load ptr, ptr %o.addr, align 8
  %g = getelementptr inbounds %struct.aiColor3D, ptr %2, i32 0, i32 1
  %3 = load float, ptr %g, align 4
  %g3 = getelementptr inbounds %struct.aiColor3D, ptr %this1, i32 0, i32 1
  store float %3, ptr %g3, align 4
  %4 = load ptr, ptr %o.addr, align 8
  %b = getelementptr inbounds %struct.aiColor3D, ptr %4, i32 0, i32 2
  %5 = load float, ptr %b, align 4
  %b4 = getelementptr inbounds %struct.aiColor3D, ptr %this1, i32 0, i32 2
  store float %5, ptr %b4, align 4
  ret ptr %this1
}

; Function Attrs: mustprogress nounwind uwtable
define linkonce_odr hidden void @_ZN9aiColor3DC2Efff(ptr noundef nonnull align 4 dereferenceable(12) %this, float noundef %_r, float noundef %_g, float noundef %_b) unnamed_addr #0 comdat align 2 {
entry:
  %this.addr = alloca ptr, align 8
  %_r.addr = alloca float, align 4
  %_g.addr = alloca float, align 4
  %_b.addr = alloca float, align 4
  store ptr %this, ptr %this.addr, align 8
  store float %_r, ptr %_r.addr, align 4
  store float %_g, ptr %_g.addr, align 4
  store float %_b, ptr %_b.addr, align 4
  %this1 = load ptr, ptr %this.addr, align 8
  %r = getelementptr inbounds %struct.aiColor3D, ptr %this1, i32 0, i32 0
  %0 = load float, ptr %_r.addr, align 4
  store float %0, ptr %r, align 4
  %g = getelementptr inbounds %struct.aiColor3D, ptr %this1, i32 0, i32 1
  %1 = load float, ptr %_g.addr, align 4
  store float %1, ptr %g, align 4
  %b = getelementptr inbounds %struct.aiColor3D, ptr %this1, i32 0, i32 2
  %2 = load float, ptr %_b.addr, align 4
  store float %2, ptr %b, align 4
  ret void
}

; Function Attrs: mustprogress nounwind uwtable
define linkonce_odr hidden void @_ZN9aiColor4tIfEC2Ev(ptr noundef nonnull align 4 dereferenceable(16) %this) unnamed_addr #0 comdat align 2 {
entry:
  %this.addr = alloca ptr, align 8
  store ptr %this, ptr %this.addr, align 8
  %this1 = load ptr, ptr %this.addr, align 8
  %r = getelementptr inbounds %class.aiColor4t, ptr %this1, i32 0, i32 0
  store float 0.000000e+00, ptr %r, align 4
  %g = getelementptr inbounds %class.aiColor4t, ptr %this1, i32 0, i32 1
  store float 0.000000e+00, ptr %g, align 4
  %b = getelementptr inbounds %class.aiColor4t, ptr %this1, i32 0, i32 2
  store float 0.000000e+00, ptr %b, align 4
  %a = getelementptr inbounds %class.aiColor4t, ptr %this1, i32 0, i32 3
  store float 0.000000e+00, ptr %a, align 4
  ret void
}

; Function Attrs: mustprogress uwtable
define linkonce_odr hidden i32 @aiGetMaterialFloat(ptr noundef %pMat, ptr noundef %pKey, i32 noundef %type, i32 noundef %index, ptr noundef %pOut) #3 comdat {
entry:
  %pMat.addr = alloca ptr, align 8
  %pKey.addr = alloca ptr, align 8
  %type.addr = alloca i32, align 4
  %index.addr = alloca i32, align 4
  %pOut.addr = alloca ptr, align 8
  store ptr %pMat, ptr %pMat.addr, align 8
  store ptr %pKey, ptr %pKey.addr, align 8
  store i32 %type, ptr %type.addr, align 4
  store i32 %index, ptr %index.addr, align 4
  store ptr %pOut, ptr %pOut.addr, align 8
  %0 = load ptr, ptr %pMat.addr, align 8
  %1 = load ptr, ptr %pKey.addr, align 8
  %2 = load i32, ptr %type.addr, align 4
  %3 = load i32, ptr %index.addr, align 4
  %4 = load ptr, ptr %pOut.addr, align 8
  %call = call i32 @aiGetMaterialFloatArray(ptr noundef %0, ptr noundef %1, i32 noundef %2, i32 noundef %3, ptr noundef %4, ptr noundef null)
  ret i32 %call
}

; Function Attrs: mustprogress uwtable
define linkonce_odr noundef i32 @_ZNK10aiMaterial3GetEPKcjjR9aiColor3D(ptr noundef nonnull align 8 dereferenceable(16) %this, ptr noundef %pKey, i32 noundef %type, i32 noundef %idx, ptr noundef nonnull align 4 dereferenceable(12) %pOut) #3 comdat align 2 {
entry:
  %this.addr = alloca ptr, align 8
  %pKey.addr = alloca ptr, align 8
  %type.addr = alloca i32, align 4
  %idx.addr = alloca i32, align 4
  %pOut.addr = alloca ptr, align 8
  %c = alloca %class.aiColor4t, align 4
  %ret = alloca i32, align 4
  %ref.tmp = alloca %struct.aiColor3D, align 4
  store ptr %this, ptr %this.addr, align 8
  store ptr %pKey, ptr %pKey.addr, align 8
  store i32 %type, ptr %type.addr, align 4
  store i32 %idx, ptr %idx.addr, align 4
  store ptr %pOut, ptr %pOut.addr, align 8
  %this1 = load ptr, ptr %this.addr, align 8
  call void @_ZN9aiColor4tIfEC2Ev(ptr noundef nonnull align 4 dereferenceable(16) %c) #18
  %0 = load ptr, ptr %pKey.addr, align 8
  %1 = load i32, ptr %type.addr, align 4
  %2 = load i32, ptr %idx.addr, align 4
  %call = call i32 @aiGetMaterialColor(ptr noundef %this1, ptr noundef %0, i32 noundef %1, i32 noundef %2, ptr noundef %c)
  store i32 %call, ptr %ret, align 4
  %3 = load i32, ptr %ret, align 4
  %cmp = icmp eq i32 %3, 0
  br i1 %cmp, label %if.then, label %if.end

if.then:                                          ; preds = %entry
  %r = getelementptr inbounds %class.aiColor4t, ptr %c, i32 0, i32 0
  %4 = load float, ptr %r, align 4
  %g = getelementptr inbounds %class.aiColor4t, ptr %c, i32 0, i32 1
  %5 = load float, ptr %g, align 4
  %b = getelementptr inbounds %class.aiColor4t, ptr %c, i32 0, i32 2
  %6 = load float, ptr %b, align 4
  call void @_ZN9aiColor3DC2Efff(ptr noundef nonnull align 4 dereferenceable(12) %ref.tmp, float noundef %4, float noundef %5, float noundef %6)
  %7 = load ptr, ptr %pOut.addr, align 8
  %call2 = call noundef nonnull align 4 dereferenceable(12) ptr @_ZN9aiColor3DaSERKS_(ptr noundef nonnull align 4 dereferenceable(12) %7, ptr noundef nonnull align 4 dereferenceable(12) %ref.tmp)
  br label %if.end

if.end:                                           ; preds = %if.then, %entry
  %8 = load i32, ptr %ret, align 4
  ret i32 %8
}

; Function Attrs: mustprogress nounwind uwtable
define linkonce_odr hidden void @_ZN9aiColor3DC2Ev(ptr noundef nonnull align 4 dereferenceable(12) %this) unnamed_addr #0 comdat align 2 {
entry:
  %this.addr = alloca ptr, align 8
  store ptr %this, ptr %this.addr, align 8
  %this1 = load ptr, ptr %this.addr, align 8
  %r = getelementptr inbounds %struct.aiColor3D, ptr %this1, i32 0, i32 0
  store float 0.000000e+00, ptr %r, align 4
  %g = getelementptr inbounds %struct.aiColor3D, ptr %this1, i32 0, i32 1
  store float 0.000000e+00, ptr %g, align 4
  %b = getelementptr inbounds %struct.aiColor3D, ptr %this1, i32 0, i32 2
  store float 0.000000e+00, ptr %b, align 4
  ret void
}

; Function Attrs: mustprogress uwtable
define hidden void @_ZN6Assimp13glTF2Exporter9GetMatTexERK10aiMaterialRN5glTF211TextureInfoE13aiTextureTypej(ptr noundef nonnull align 8 dereferenceable(120) %this, ptr noundef nonnull align 8 dereferenceable(16) %mat, ptr noundef nonnull align 8 dereferenceable(48) %prop, i32 noundef %tt, i32 noundef %slot) #3 align 2 {
entry:
  %this.addr = alloca ptr, align 8
  %mat.addr = alloca ptr, align 8
  %prop.addr = alloca ptr, align 8
  %tt.addr = alloca i32, align 4
  %slot.addr = alloca i32, align 4
  %texture = alloca ptr, align 8
  store ptr %this, ptr %this.addr, align 8
  store ptr %mat, ptr %mat.addr, align 8
  store ptr %prop, ptr %prop.addr, align 8
  store i32 %tt, ptr %tt.addr, align 4
  store i32 %slot, ptr %slot.addr, align 4
  %this1 = load ptr, ptr %this.addr, align 8
  %0 = load ptr, ptr %prop.addr, align 8
  %texture2 = getelementptr inbounds %"struct.glTF2::TextureInfo", ptr %0, i32 0, i32 0
  store ptr %texture2, ptr %texture, align 8
  %1 = load ptr, ptr %mat.addr, align 8
  %2 = load ptr, ptr %texture, align 8
  %3 = load ptr, ptr %prop.addr, align 8
  %texCoord = getelementptr inbounds %"struct.glTF2::TextureInfo", ptr %3, i32 0, i32 2
  %4 = load i32, ptr %tt.addr, align 4
  %5 = load i32, ptr %slot.addr, align 4
  call void @_ZN6Assimp13glTF2Exporter9GetMatTexERK10aiMaterialRN10glTFCommon3RefIN5glTF27TextureEEERj13aiTextureTypej(ptr noundef nonnull align 8 dereferenceable(120) %this1, ptr noundef nonnull align 8 dereferenceable(16) %1, ptr noundef nonnull align 8 dereferenceable(12) %2, ptr noundef nonnull align 4 dereferenceable(4) %texCoord, i32 noundef %4, i32 noundef %5)
  ret void
}

; Function Attrs: mustprogress uwtable
define linkonce_odr noundef i32 @_ZNK10aiMaterial3GetEPKcjjRf(ptr noundef nonnull align 8 dereferenceable(16) %this, ptr noundef %pKey, i32 noundef %type, i32 noundef %idx, ptr noundef nonnull align 4 dereferenceable(4) %pOut) #3 comdat align 2 {
entry:
  %this.addr = alloca ptr, align 8
  %pKey.addr = alloca ptr, align 8
  %type.addr = alloca i32, align 4
  %idx.addr = alloca i32, align 4
  %pOut.addr = alloca ptr, align 8
  store ptr %this, ptr %this.addr, align 8
  store ptr %pKey, ptr %pKey.addr, align 8
  store i32 %type, ptr %type.addr, align 4
  store i32 %idx, ptr %idx.addr, align 4
  store ptr %pOut, ptr %pOut.addr, align 8
  %this1 = load ptr, ptr %this.addr, align 8
  %0 = load ptr, ptr %pKey.addr, align 8
  %1 = load i32, ptr %type.addr, align 4
  %2 = load i32, ptr %idx.addr, align 4
  %3 = load ptr, ptr %pOut.addr, align 8
  %call = call i32 @aiGetMaterialFloat(ptr noundef %this1, ptr noundef %0, i32 noundef %1, i32 noundef %2, ptr noundef %3)
  ret i32 %call
}

; Function Attrs: mustprogress uwtable
define hidden noundef i32 @_ZNK6Assimp13glTF2Exporter11GetMatColorERK10aiMaterialRA3_fPKcii(ptr noundef nonnull align 8 dereferenceable(120) %this, ptr noundef nonnull align 8 dereferenceable(16) %mat, ptr noundef nonnull align 4 dereferenceable(12) %prop, ptr noundef %propName, i32 noundef %type, i32 noundef %idx) #3 align 2 {
entry:
  %this.addr = alloca ptr, align 8
  %mat.addr = alloca ptr, align 8
  %prop.addr = alloca ptr, align 8
  %propName.addr = alloca ptr, align 8
  %type.addr = alloca i32, align 4
  %idx.addr = alloca i32, align 4
  %col = alloca %struct.aiColor3D, align 4
  %result = alloca i32, align 4
  store ptr %this, ptr %this.addr, align 8
  store ptr %mat, ptr %mat.addr, align 8
  store ptr %prop, ptr %prop.addr, align 8
  store ptr %propName, ptr %propName.addr, align 8
  store i32 %type, ptr %type.addr, align 4
  store i32 %idx, ptr %idx.addr, align 4
  call void @_ZN9aiColor3DC2Ev(ptr noundef nonnull align 4 dereferenceable(12) %col) #18
  %0 = load ptr, ptr %mat.addr, align 8
  %1 = load ptr, ptr %propName.addr, align 8
  %2 = load i32, ptr %type.addr, align 4
  %3 = load i32, ptr %idx.addr, align 4
  %call = call noundef i32 @_ZNK10aiMaterial3GetEPKcjjR9aiColor3D(ptr noundef nonnull align 8 dereferenceable(16) %0, ptr noundef %1, i32 noundef %2, i32 noundef %3, ptr noundef nonnull align 4 dereferenceable(12) %col)
  store i32 %call, ptr %result, align 4
  %4 = load i32, ptr %result, align 4
  %cmp = icmp eq i32 %4, 0
  br i1 %cmp, label %if.then, label %if.end

if.then:                                          ; preds = %entry
  %r = getelementptr inbounds %struct.aiColor3D, ptr %col, i32 0, i32 0
  %5 = load float, ptr %r, align 4
  %6 = load ptr, ptr %prop.addr, align 8
  %arrayidx = getelementptr inbounds [3 x float], ptr %6, i64 0, i64 0
  store float %5, ptr %arrayidx, align 4
  %g = getelementptr inbounds %struct.aiColor3D, ptr %col, i32 0, i32 1
  %7 = load float, ptr %g, align 4
  %8 = load ptr, ptr %prop.addr, align 8
  %arrayidx2 = getelementptr inbounds [3 x float], ptr %8, i64 0, i64 1
  store float %7, ptr %arrayidx2, align 4
  %b = getelementptr inbounds %struct.aiColor3D, ptr %col, i32 0, i32 2
  %9 = load float, ptr %b, align 4
  %10 = load ptr, ptr %prop.addr, align 8
  %arrayidx3 = getelementptr inbounds [3 x float], ptr %10, i64 0, i64 2
  store float %9, ptr %arrayidx3, align 4
  br label %if.end

if.end:                                           ; preds = %if.then, %entry
  %11 = load i32, ptr %result, align 4
  ret i32 %11
}

; Function Attrs: mustprogress uwtable
define hidden noundef zeroext i1 @_ZN6Assimp13glTF2Exporter14GetMatSpecularERK10aiMaterialRN5glTF216MaterialSpecularE(ptr noundef nonnull align 8 dereferenceable(120) %this, ptr noundef nonnull align 8 dereferenceable(16) %mat, ptr noundef nonnull align 8 dereferenceable(112) %specular) #3 align 2 {
entry:
  %retval = alloca i1, align 1
  %this.addr = alloca ptr, align 8
  %mat.addr = alloca ptr, align 8
  %specular.addr = alloca ptr, align 8
  %colorFactorIsZero = alloca i8, align 1
  store ptr %this, ptr %this.addr, align 8
  store ptr %mat, ptr %mat.addr, align 8
  store ptr %specular, ptr %specular.addr, align 8
  %this1 = load ptr, ptr %this.addr, align 8
  %0 = load ptr, ptr %mat.addr, align 8
  %1 = load ptr, ptr %specular.addr, align 8
  %specularColorFactor = getelementptr inbounds %"struct.glTF2::MaterialSpecular", ptr %1, i32 0, i32 1
  %call = call noundef i32 @_ZNK6Assimp13glTF2Exporter11GetMatColorERK10aiMaterialRA3_fPKcii(ptr noundef nonnull align 8 dereferenceable(120) %this1, ptr noundef nonnull align 8 dereferenceable(16) %0, ptr noundef nonnull align 4 dereferenceable(12) %specularColorFactor, ptr noundef @.str.29, i32 noundef 0, i32 noundef 0)
  %cmp = icmp ne i32 %call, 0
  br i1 %cmp, label %land.lhs.true, label %if.end

land.lhs.true:                                    ; preds = %entry
  %2 = load ptr, ptr %mat.addr, align 8
  %3 = load ptr, ptr %specular.addr, align 8
  %specularFactor = getelementptr inbounds %"struct.glTF2::MaterialSpecular", ptr %3, i32 0, i32 0
  %call2 = call noundef i32 @_ZNK10aiMaterial3GetEPKcjjRf(ptr noundef nonnull align 8 dereferenceable(16) %2, ptr noundef @.str.31, i32 noundef 0, i32 noundef 0, ptr noundef nonnull align 4 dereferenceable(4) %specularFactor)
  %cmp3 = icmp ne i32 %call2, 0
  br i1 %cmp3, label %if.then, label %if.end

if.then:                                          ; preds = %land.lhs.true
  store i1 false, ptr %retval, align 1
  br label %return

if.end:                                           ; preds = %land.lhs.true, %entry
  %4 = load ptr, ptr %specular.addr, align 8
  %specularColorFactor4 = getelementptr inbounds %"struct.glTF2::MaterialSpecular", ptr %4, i32 0, i32 1
  %arrayidx = getelementptr inbounds [3 x float], ptr %specularColorFactor4, i64 0, i64 0
  %5 = load float, ptr %arrayidx, align 4
  %6 = load float, ptr @_ZN5glTF2L26defaultSpecularColorFactorE, align 4
  %cmp5 = fcmp oeq float %5, %6
  br i1 %cmp5, label %land.lhs.true6, label %land.end

land.lhs.true6:                                   ; preds = %if.end
  %7 = load ptr, ptr %specular.addr, align 8
  %specularColorFactor7 = getelementptr inbounds %"struct.glTF2::MaterialSpecular", ptr %7, i32 0, i32 1
  %arrayidx8 = getelementptr inbounds [3 x float], ptr %specularColorFactor7, i64 0, i64 1
  %8 = load float, ptr %arrayidx8, align 4
  %9 = load float, ptr getelementptr inbounds ([3 x float], ptr @_ZN5glTF2L26defaultSpecularColorFactorE, i64 0, i64 1), align 4
  %cmp9 = fcmp oeq float %8, %9
  br i1 %cmp9, label %land.rhs, label %land.end

land.rhs:                                         ; preds = %land.lhs.true6
  %10 = load ptr, ptr %specular.addr, align 8
  %specularColorFactor10 = getelementptr inbounds %"struct.glTF2::MaterialSpecular", ptr %10, i32 0, i32 1
  %arrayidx11 = getelementptr inbounds [3 x float], ptr %specularColorFactor10, i64 0, i64 2
  %11 = load float, ptr %arrayidx11, align 4
  %12 = load float, ptr getelementptr inbounds ([3 x float], ptr @_ZN5glTF2L26defaultSpecularColorFactorE, i64 0, i64 2), align 4
  %cmp12 = fcmp oeq float %11, %12
  br label %land.end

land.end:                                         ; preds = %land.rhs, %land.lhs.true6, %if.end
  %13 = phi i1 [ false, %land.lhs.true6 ], [ false, %if.end ], [ %cmp12, %land.rhs ]
  %frombool = zext i1 %13 to i8
  store i8 %frombool, ptr %colorFactorIsZero, align 1
  %14 = load ptr, ptr %specular.addr, align 8
  %specularFactor13 = getelementptr inbounds %"struct.glTF2::MaterialSpecular", ptr %14, i32 0, i32 0
  %15 = load float, ptr %specularFactor13, align 8
  %cmp14 = fcmp oeq float %15, 0.000000e+00
  br i1 %cmp14, label %land.lhs.true15, label %if.else

land.lhs.true15:                                  ; preds = %land.end
  %16 = load i8, ptr %colorFactorIsZero, align 1
  %tobool = trunc i8 %16 to i1
  br i1 %tobool, label %if.then16, label %if.else

if.then16:                                        ; preds = %land.lhs.true15
  store i1 false, ptr %retval, align 1
  br label %return

if.else:                                          ; preds = %land.lhs.true15, %land.end
  %17 = load ptr, ptr %specular.addr, align 8
  %specularFactor17 = getelementptr inbounds %"struct.glTF2::MaterialSpecular", ptr %17, i32 0, i32 0
  %18 = load float, ptr %specularFactor17, align 8
  %cmp18 = fcmp oeq float %18, 0.000000e+00
  br i1 %cmp18, label %if.then19, label %if.else21

if.then19:                                        ; preds = %if.else
  %19 = load ptr, ptr %specular.addr, align 8
  %specularFactor20 = getelementptr inbounds %"struct.glTF2::MaterialSpecular", ptr %19, i32 0, i32 0
  store float 1.000000e+00, ptr %specularFactor20, align 8
  br label %if.end31

if.else21:                                        ; preds = %if.else
  %20 = load i8, ptr %colorFactorIsZero, align 1
  %tobool22 = trunc i8 %20 to i1
  br i1 %tobool22, label %if.then23, label %if.end30

if.then23:                                        ; preds = %if.else21
  %21 = load ptr, ptr %specular.addr, align 8
  %specularColorFactor24 = getelementptr inbounds %"struct.glTF2::MaterialSpecular", ptr %21, i32 0, i32 1
  %arrayidx25 = getelementptr inbounds [3 x float], ptr %specularColorFactor24, i64 0, i64 2
  store float 1.000000e+00, ptr %arrayidx25, align 4
  %22 = load ptr, ptr %specular.addr, align 8
  %specularColorFactor26 = getelementptr inbounds %"struct.glTF2::MaterialSpecular", ptr %22, i32 0, i32 1
  %arrayidx27 = getelementptr inbounds [3 x float], ptr %specularColorFactor26, i64 0, i64 1
  store float 1.000000e+00, ptr %arrayidx27, align 4
  %23 = load ptr, ptr %specular.addr, align 8
  %specularColorFactor28 = getelementptr inbounds %"struct.glTF2::MaterialSpecular", ptr %23, i32 0, i32 1
  %arrayidx29 = getelementptr inbounds [3 x float], ptr %specularColorFactor28, i64 0, i64 0
  store float 1.000000e+00, ptr %arrayidx29, align 4
  br label %if.end30

if.end30:                                         ; preds = %if.then23, %if.else21
  br label %if.end31

if.end31:                                         ; preds = %if.end30, %if.then19
  br label %if.end32

if.end32:                                         ; preds = %if.end31
  %24 = load ptr, ptr %mat.addr, align 8
  %25 = load ptr, ptr %specular.addr, align 8
  %specularTexture = getelementptr inbounds %"struct.glTF2::MaterialSpecular", ptr %25, i32 0, i32 2
  call void @_ZN6Assimp13glTF2Exporter9GetMatTexERK10aiMaterialRN5glTF211TextureInfoE13aiTextureTypej(ptr noundef nonnull align 8 dereferenceable(120) %this1, ptr noundef nonnull align 8 dereferenceable(16) %24, ptr noundef nonnull align 8 dereferenceable(48) %specularTexture, i32 noundef 2, i32 noundef 0)
  %26 = load ptr, ptr %mat.addr, align 8
  %27 = load ptr, ptr %specular.addr, align 8
  %specularColorTexture = getelementptr inbounds %"struct.glTF2::MaterialSpecular", ptr %27, i32 0, i32 3
  call void @_ZN6Assimp13glTF2Exporter9GetMatTexERK10aiMaterialRN5glTF211TextureInfoE13aiTextureTypej(ptr noundef nonnull align 8 dereferenceable(120) %this1, ptr noundef nonnull align 8 dereferenceable(16) %26, ptr noundef nonnull align 8 dereferenceable(48) %specularColorTexture, i32 noundef 2, i32 noundef 1)
  store i1 true, ptr %retval, align 1
  br label %return

return:                                           ; preds = %if.end32, %if.then16, %if.then
  %28 = load i1, ptr %retval, align 1
  ret i1 %28
}