; Function Attrs: mustprogress uwtable
define hidden noundef zeroext i1 @_ZN6Assimp13glTF2Exporter14GetMatSpecularERK10aiMaterialRN5glTF216MaterialSpecularE(ptr noundef nonnull align 8 dereferenceable(120) %this, ptr noundef nonnull align 8 dereferenceable(16) %mat, ptr noundef nonnull align 8 dereferenceable(112) %specular) local_unnamed_addr #2 align 2 {
entry:
  %c.i.i = alloca %class.aiColor4t, align 8
  %specularColorFactor = getelementptr inbounds i8, ptr %specular, i64 4
  call void @llvm.lifetime.start.p0(i64 16, ptr nonnull %c.i.i)
  call void @llvm.memset.p0.i64(ptr noundef nonnull align 8 dereferenceable(16) %c.i.i, i8 0, i64 16, i1 false)
  %call.i.i = call i32 @aiGetMaterialColor(ptr noundef nonnull %mat, ptr noundef nonnull @.str.29, i32 noundef 0, i32 noundef 0, ptr noundef nonnull %c.i.i)
  %cmp.i.i = icmp eq i32 %call.i.i, 0
  br i1 %cmp.i.i, label %_ZNK6Assimp13glTF2Exporter11GetMatColorERK10aiMaterialRA3_fPKcii.exit.thread, label %land.lhs.true

_ZNK6Assimp13glTF2Exporter11GetMatColorERK10aiMaterialRA3_fPKcii.exit.thread: ; preds = %entry
  %b.i5.i = getelementptr inbounds i8, ptr %c.i.i, i64 8
  %0 = load float, ptr %b.i5.i, align 8
  %1 = load <2 x float>, ptr %c.i.i, align 8
  call void @llvm.lifetime.end.p0(i64 16, ptr nonnull %c.i.i)
  store <2 x float> %1, ptr %specularColorFactor, align 4
  %arrayidx3.i = getelementptr inbounds i8, ptr %specular, i64 12
  store float %0, ptr %arrayidx3.i, align 4
  %2 = extractelement <2 x float> %1, i64 0
  %3 = extractelement <2 x float> %1, i64 1
  br label %if.end

land.lhs.true:                                    ; preds = %entry
  call void @llvm.lifetime.end.p0(i64 16, ptr nonnull %c.i.i)
  %call.i.i17 = call noundef i32 @aiGetMaterialFloatArray(ptr noundef nonnull %mat, ptr noundef nonnull @.str.31, i32 noundef 0, i32 noundef 0, ptr noundef nonnull %specular, ptr noundef null)
  %cmp3.not = icmp eq i32 %call.i.i17, 0
  br i1 %cmp3.not, label %land.lhs.true.if.end_crit_edge, label %return

land.lhs.true.if.end_crit_edge:                   ; preds = %land.lhs.true
  %.pre = load float, ptr %specularColorFactor, align 4
  %arrayidx8.phi.trans.insert = getelementptr inbounds i8, ptr %specular, i64 8
  %.pre24 = load float, ptr %arrayidx8.phi.trans.insert, align 8
  br label %if.end

if.end:                                           ; preds = %land.lhs.true.if.end_crit_edge, %_ZNK6Assimp13glTF2Exporter11GetMatColorERK10aiMaterialRA3_fPKcii.exit.thread
  %4 = phi float [ %.pre24, %land.lhs.true.if.end_crit_edge ], [ %3, %_ZNK6Assimp13glTF2Exporter11GetMatColorERK10aiMaterialRA3_fPKcii.exit.thread ]
  %5 = phi float [ %.pre, %land.lhs.true.if.end_crit_edge ], [ %2, %_ZNK6Assimp13glTF2Exporter11GetMatColorERK10aiMaterialRA3_fPKcii.exit.thread ]
  %cmp5 = fcmp oeq float %5, 1.000000e+00
  %cmp9 = fcmp oeq float %4, 1.000000e+00
  %or.cond = select i1 %cmp5, i1 %cmp9, i1 false
  br i1 %or.cond, label %land.end, label %land.end.thread

land.end.thread:                                  ; preds = %if.end
  %6 = load float, ptr %specular, align 8
  %cmp1419 = fcmp oeq float %6, 0.000000e+00
  br i1 %cmp1419, label %if.then19, label %if.end32

land.end:                                         ; preds = %if.end
  %arrayidx11 = getelementptr inbounds i8, ptr %specular, i64 12
  %7 = load float, ptr %arrayidx11, align 4
  %cmp12 = fcmp une float %7, 1.000000e+00
  %8 = load float, ptr %specular, align 8
  %cmp14 = fcmp une float %8, 0.000000e+00
  %brmerge = select i1 %cmp14, i1 true, i1 %cmp12
  br i1 %brmerge, label %if.else, label %return

if.else:                                          ; preds = %land.end
  br i1 %cmp14, label %if.else21, label %if.then19

if.then19:                                        ; preds = %land.end.thread, %if.else
  store float 1.000000e+00, ptr %specular, align 8
  br label %if.end32

if.else21:                                        ; preds = %if.else
  br i1 %cmp12, label %if.end32, label %if.then23

if.then23:                                        ; preds = %if.else21
  store float 1.000000e+00, ptr %arrayidx11, align 4
  store <2 x float> <float 1.000000e+00, float 1.000000e+00>, ptr %specularColorFactor, align 4
  br label %if.end32

if.end32:                                         ; preds = %land.end.thread, %if.then19, %if.then23, %if.else21
  %specularTexture = getelementptr inbounds i8, ptr %specular, i64 16
  %texCoord.i = getelementptr inbounds i8, ptr %specular, i64 36
  call void @_ZN6Assimp13glTF2Exporter9GetMatTexERK10aiMaterialRN10glTFCommon3RefIN5glTF27TextureEEERj13aiTextureTypej(ptr noundef nonnull align 8 dereferenceable(120) %this, ptr noundef nonnull align 8 dereferenceable(16) %mat, ptr noundef nonnull align 8 dereferenceable(12) %specularTexture, ptr noundef nonnull align 4 dereferenceable(4) %texCoord.i, i32 noundef 2, i32 noundef 0)
  %specularColorTexture = getelementptr inbounds i8, ptr %specular, i64 64
  %texCoord.i18 = getelementptr inbounds i8, ptr %specular, i64 84
  call void @_ZN6Assimp13glTF2Exporter9GetMatTexERK10aiMaterialRN10glTFCommon3RefIN5glTF27TextureEEERj13aiTextureTypej(ptr noundef nonnull align 8 dereferenceable(120) %this, ptr noundef nonnull align 8 dereferenceable(16) %mat, ptr noundef nonnull align 8 dereferenceable(12) %specularColorTexture, ptr noundef nonnull align 4 dereferenceable(4) %texCoord.i18, i32 noundef 2, i32 noundef 1)
  br label %return

return:                                           ; preds = %land.end, %land.lhs.true, %if.end32
  %retval.0 = phi i1 [ true, %if.end32 ], [ false, %land.lhs.true ], [ false, %land.end ]
  ret i1 %retval.0
}